target datalayout = "e-m:e-p270:32:32-p271:32:32-p272:64:64-i64:64-i128:128-f80:128-n8:16:32:64-S128"
target triple = "x86_64-pc-linux-gnu"

%"class.cvc5::internal::NodeTemplate" = type { ptr }
%"class.cvc5::internal::theory::fp::symfpuSymbolic::symbolicBitVector" = type { %"class.cvc5::internal::theory::fp::symfpuSymbolic::nodeWrapper" }
%"class.cvc5::internal::theory::fp::symfpuSymbolic::nodeWrapper" = type { %"class.cvc5::internal::NodeTemplate" }

; Function Attrs: mustprogress uwtable
define linkonce_odr hidden void @_ZN4cvc58internal6theory2fp14symfpuSymbolic17symbolicBitVectorILb0EE4zeroERKj(ptr dead_on_unwind noalias writable sret(%"class.cvc5::internal::theory::fp::symfpuSymbolic::symbolicBitVector") align 8 %0, ptr noundef nonnull align 4 dereferenceable(4) %1) #4 comdat align 2 {
  %3 = alloca ptr, align 8
  %4 = alloca ptr, align 8
  store ptr %0, ptr %3, align 8
  store ptr %1, ptr %4, align 8, !tbaa !47
  %5 = load ptr, ptr %4, align 8, !tbaa !47
  %6 = load i32, ptr %5, align 4, !tbaa !8
  call void @_ZN4cvc58internal6theory2fp14symfpuSymbolic17symbolicBitVectorILb0EEC2Ejj(ptr noundef nonnull align 8 dereferenceable(8) %0, i32 noundef %6, i32 noundef 0)
  ret void
}

; Function Attrs: mustprogress uwtable
define linkonce_odr hidden void @_ZN4cvc58internal6theory2fp14symfpuSymbolic17symbolicBitVectorILb0EE7allOnesERKj(ptr dead_on_unwind noalias writable sret(%"class.cvc5::internal::theory::fp::symfpuSymbolic::symbolicBitVector") align 8 %0, ptr noundef nonnull align 4 dereferenceable(4) %1) #4 comdat align 2 personality ptr @__gxx_personality_v0 {
  %3 = alloca ptr, align 8
  %4 = alloca ptr, align 8
  %5 = alloca %"class.cvc5::internal::theory::fp::symfpuSymbolic::symbolicBitVector", align 8
  %6 = alloca ptr, align 8
  %7 = alloca i32, align 4
  store ptr %0, ptr %3, align 8
  store ptr %1, ptr %4, align 8, !tbaa !47
  call void @llvm.lifetime.start.p0(i64 8, ptr %5) #3
  %8 = load ptr, ptr %4, align 8, !tbaa !47
  call void @_ZN4cvc58internal6theory2fp14symfpuSymbolic17symbolicBitVectorILb0EE4zeroERKj(ptr dead_on_unwind writable sret(%"class.cvc5::internal::theory::fp::symfpuSymbolic::symbolicBitVector") align 8 %5, ptr noundef nonnull align 4 dereferenceable(4) %8)
  invoke void @_ZNK4cvc58internal6theory2fp14symfpuSymbolic17symbolicBitVectorILb0EEcoEv(ptr dead_on_unwind writable sret(%"class.cvc5::internal::theory::fp::symfpuSymbolic::symbolicBitVector") align 8 %0, ptr noundef nonnull align 8 dereferenceable(8) %5)
          to label %9 unwind label %10

9:                                                ; preds = %2
  call void @_ZN4cvc58internal12NodeTemplateILb1EED2Ev(ptr noundef nonnull align 8 dereferenceable(8) %5) #3
  call void @llvm.lifetime.end.p0(i64 8, ptr %5) #3
  ret void

10:                                               ; preds = %2
  %11 = landingpad { ptr, i32 }
          cleanup
  %12 = extractvalue { ptr, i32 } %11, 0
  store ptr %12, ptr %6, align 8
  %13 = extractvalue { ptr, i32 } %11, 1
  store i32 %13, ptr %7, align 4
  call void @_ZN4cvc58internal12NodeTemplateILb1EED2Ev(ptr noundef nonnull align 8 dereferenceable(8) %5) #3
  call void @llvm.lifetime.end.p0(i64 8, ptr %5) #3
  br label %14

14:                                               ; preds = %10
  %15 = load ptr, ptr %6, align 8
  %16 = load i32, ptr %7, align 4
  %17 = insertvalue { ptr, i32 } poison, ptr %15, 0
  %18 = insertvalue { ptr, i32 } %17, i32 %16, 1
  resume { ptr, i32 } %18
}

; Function Attrs: mustprogress uwtable
define hidden void @_ZN4cvc58internal6theory2fp14symfpuSymbolic17symbolicBitVectorILb0EE8maxValueERKj(ptr dead_on_unwind noalias writable sret(%"class.cvc5::internal::theory::fp::symfpuSymbolic::symbolicBitVector") align 8 %0, ptr noundef nonnull align 4 dereferenceable(4) %1) #4 align 2 {
  %3 = alloca ptr, align 8
  %4 = alloca ptr, align 8
  store ptr %0, ptr %3, align 8
  store ptr %1, ptr %4, align 8, !tbaa !47
  %5 = load ptr, ptr %4, align 8, !tbaa !47
  call void @_ZN4cvc58internal6theory2fp14symfpuSymbolic17symbolicBitVectorILb0EE7allOnesERKj(ptr dead_on_unwind writable sret(%"class.cvc5::internal::theory::fp::symfpuSymbolic::symbolicBitVector") align 8 %0, ptr noundef nonnull align 4 dereferenceable(4) %5)
  ret void
}