; Function Attrs: mustprogress uwtable
define hidden void @_ZN4cvc58internal6theory2fp14symfpuSymbolic17symbolicBitVectorILb0EE8maxValueERKj(ptr dead_on_unwind noalias writable sret(%"class.cvc5::internal::theory::fp::symfpuSymbolic::symbolicBitVector") align 8 %0, ptr noundef nonnull readonly align 4 captures(none) dereferenceable(4) %1) local_unnamed_addr #3 align 2 personality ptr @__gxx_personality_v0 {
  %3 = alloca %"class.cvc5::internal::theory::fp::symfpuSymbolic::symbolicBitVector", align 8
  call void @llvm.lifetime.start.p0(i64 8, ptr nonnull %3) #23, !noalias !89
  %4 = load i32, ptr %1, align 4, !tbaa !82, !noalias !92
  call void @_ZN4cvc58internal6theory2fp14symfpuSymbolic17symbolicBitVectorILb0EEC2Ejj(ptr noundef nonnull align 8 dereferenceable(8) %3, i32 noundef %4, i32 noundef 0), !noalias !89
  invoke void @_ZNK4cvc58internal6theory2fp14symfpuSymbolic17symbolicBitVectorILb0EEcoEv(ptr dead_on_unwind writable sret(%"class.cvc5::internal::theory::fp::symfpuSymbolic::symbolicBitVector") align 8 %0, ptr noundef nonnull align 8 dereferenceable(8) %3)
          to label %5 unwind label %19

5:                                                ; preds = %2
  %6 = load ptr, ptr %3, align 8, !tbaa !22, !noalias !89
  %7 = load i64, ptr %6, align 8
  %8 = and i64 %7, 1152920405095219200
  %.not.i.i.i = icmp eq i64 %8, 1152920405095219200
  br i1 %.not.i.i.i, label %_ZN4cvc58internal6theory2fp14symfpuSymbolic17symbolicBitVectorILb0EE7allOnesERKj.exit, label %9, !prof !9

9:                                                ; preds = %5
  %10 = add i64 %7, 1152920405095219200
  %11 = and i64 %10, 1152920405095219200
  %12 = and i64 %7, -1152920405095219201
  %13 = or disjoint i64 %11, %12
  store i64 %13, ptr %6, align 8
  %14 = icmp eq i64 %11, 0
  br i1 %14, label %15, label %_ZN4cvc58internal6theory2fp14symfpuSymbolic17symbolicBitVectorILb0EE7allOnesERKj.exit, !prof !9

15:                                               ; preds = %9
  invoke void @_ZN4cvc58internal4expr9NodeValue15markForDeletionEv(ptr noundef nonnull align 8 dereferenceable(24) %6)
          to label %_ZN4cvc58internal6theory2fp14symfpuSymbolic17symbolicBitVectorILb0EE7allOnesERKj.exit unwind label %16

16:                                               ; preds = %15
  %17 = landingpad { ptr, i32 }
          catch ptr null
  %18 = extractvalue { ptr, i32 } %17, 0
  call void @__clang_call_terminate(ptr %18) #24
  unreachable

19:                                               ; preds = %2
  %20 = landingpad { ptr, i32 }
          cleanup
  call void @_ZN4cvc58internal12NodeTemplateILb1EED2Ev(ptr noundef nonnull align 8 dereferenceable(8) %3) #23
  call void @llvm.lifetime.end.p0(i64 8, ptr nonnull %3) #23, !noalias !89
  resume { ptr, i32 } %20

_ZN4cvc58internal6theory2fp14symfpuSymbolic17symbolicBitVectorILb0EE7allOnesERKj.exit: ; preds = %5, %9, %15
  call void @llvm.lifetime.end.p0(i64 8, ptr nonnull %3) #23, !noalias !89
  ret void
}